; Function Attrs: alwaysinline norecurse nounwind uwtable
define internal void @_ZNK8LightGBM13BinaryLogloss12GetGradientsEPKdPfS3_.omp_outlined(ptr noalias noundef readonly captures(none) %0, ptr noalias readnone captures(none) %1, ptr noundef %2, ptr noundef nonnull readonly align 8 captures(none) dereferenceable(8) %3, ptr noundef nonnull readonly align 8 captures(none) dereferenceable(8) %4, ptr noundef nonnull readonly align 8 captures(none) dereferenceable(8) %5) #14 personality ptr @__gxx_personality_v0 {
  %7 = alloca float, align 4
  %8 = alloca i32, align 4
  %9 = alloca i32, align 4
  %10 = alloca i32, align 4
  %11 = alloca i32, align 4
  %12 = getelementptr inbounds nuw i8, ptr %2, i64 8
  %13 = load i32, ptr %12, align 8, !tbaa !358
  %14 = icmp sgt i32 %13, 0
  br i1 %14, label %15, label %70

15:                                               ; preds = %6
  %16 = add nsw i32 %13, -1
  call void @llvm.lifetime.start.p0(i64 4, ptr nonnull %8) #15
  store i32 0, ptr %8, align 4, !tbaa !127
  call void @llvm.lifetime.start.p0(i64 4, ptr nonnull %9) #15
  store i32 %16, ptr %9, align 4, !tbaa !127
  call void @llvm.lifetime.start.p0(i64 4, ptr nonnull %10) #15
  store i32 1, ptr %10, align 4, !tbaa !127
  call void @llvm.lifetime.start.p0(i64 4, ptr nonnull %11) #15
  store i32 0, ptr %11, align 4, !tbaa !127
  %17 = load i32, ptr %0, align 4, !tbaa !127
  call void @__kmpc_for_static_init_4(ptr nonnull @1, i32 %17, i32 34, ptr nonnull %11, ptr nonnull %8, ptr nonnull %9, ptr nonnull %10, i32 1, i32 1)
  %18 = load i32, ptr %9, align 4, !tbaa !127
  %19 = call i32 @llvm.smin.i32(i32 %18, i32 %16)
  store i32 %19, ptr %9, align 4, !tbaa !127
  %20 = load i32, ptr %8, align 4, !tbaa !127
  %.not28 = icmp sgt i32 %20, %19
  br i1 %.not28, label %._crit_edge, label %.lr.ph

.lr.ph:                                           ; preds = %15
  %21 = getelementptr inbounds nuw i8, ptr %2, i64 16
  %22 = getelementptr inbounds nuw i8, ptr %2, i64 96
  %23 = getelementptr inbounds nuw i8, ptr %2, i64 80
  %24 = getelementptr inbounds nuw i8, ptr %2, i64 104
  %25 = getelementptr inbounds nuw i8, ptr %2, i64 40
  %26 = getelementptr inbounds nuw i8, ptr %2, i64 48
  %27 = getelementptr inbounds nuw i8, ptr %2, i64 32
  %28 = sext i32 %20 to i64
  br label %29

29:                                               ; preds = %.lr.ph, %38
  %indvars.iv = phi i64 [ %28, %.lr.ph ], [ %indvars.iv.next, %38 ]
  %30 = load ptr, ptr %21, align 8, !tbaa !359
  %31 = getelementptr inbounds float, ptr %30, i64 %indvars.iv
  %32 = load float, ptr %31, align 4, !tbaa !175
  call void @llvm.lifetime.start.p0(i64 4, ptr nonnull %7)
  store float %32, ptr %7, align 4, !tbaa !175
  %33 = load ptr, ptr %22, align 8, !tbaa !73
  %.not.i.i = icmp eq ptr %33, null
  br i1 %.not.i.i, label %34, label %35

34:                                               ; preds = %29
  invoke void @_ZSt25__throw_bad_function_callv() #38
          to label %.noexc unwind label %.loopexit.split-lp

.noexc:                                           ; preds = %34
  unreachable

35:                                               ; preds = %29
  %36 = load ptr, ptr %24, align 8, !tbaa !105
  %37 = invoke noundef zeroext i1 %36(ptr noundef nonnull align 8 dereferenceable(32) %23, ptr noundef nonnull align 4 dereferenceable(4) %7)
          to label %38 unwind label %.loopexit

38:                                               ; preds = %35
  call void @llvm.lifetime.end.p0(i64 4, ptr nonnull %7)
  %39 = zext i1 %37 to i64
  %40 = getelementptr inbounds nuw [2 x i32], ptr %25, i64 0, i64 %39
  %41 = load i32, ptr %40, align 4, !tbaa !127
  %42 = getelementptr inbounds nuw [2 x double], ptr %26, i64 0, i64 %39
  %43 = load double, ptr %42, align 8, !tbaa !153
  %44 = sub nsw i32 0, %41
  %45 = sitofp i32 %44 to double
  %46 = load double, ptr %27, align 8, !tbaa !100
  %47 = fmul double %46, %45
  %48 = sitofp i32 %41 to double
  %49 = fmul double %46, %48
  %50 = load ptr, ptr %3, align 8, !tbaa !152
  %51 = getelementptr inbounds double, ptr %50, i64 %indvars.iv
  %52 = load double, ptr %51, align 8, !tbaa !153
  %53 = fmul double %49, %52
  %54 = call double @exp(double noundef %53) #15, !tbaa !127
  %55 = fadd double %54, 1.000000e+00
  %56 = fdiv double %47, %55
  %57 = call double @llvm.fabs.f64(double %56)
  %58 = fmul double %43, %56
  %59 = fptrunc double %58 to float
  %60 = load ptr, ptr %4, align 8, !tbaa !150
  %61 = getelementptr inbounds float, ptr %60, i64 %indvars.iv
  store float %59, ptr %61, align 4, !tbaa !175
  %62 = fsub double %46, %57
  %63 = fmul double %57, %62
  %64 = fmul double %43, %63
  %65 = fptrunc double %64 to float
  %66 = load ptr, ptr %5, align 8, !tbaa !150
  %67 = getelementptr inbounds float, ptr %66, i64 %indvars.iv
  store float %65, ptr %67, align 4, !tbaa !175
  %indvars.iv.next = add nsw i64 %indvars.iv, 1
  %68 = load i32, ptr %9, align 4, !tbaa !127
  %69 = sext i32 %68 to i64
  %.not.not = icmp slt i64 %indvars.iv, %69
  br i1 %.not.not, label %29, label %._crit_edge

._crit_edge:                                      ; preds = %38, %15
  call void @__kmpc_for_static_fini(ptr nonnull @1, i32 %17)
  call void @llvm.lifetime.end.p0(i64 4, ptr nonnull %11) #15
  call void @llvm.lifetime.end.p0(i64 4, ptr nonnull %10) #15
  call void @llvm.lifetime.end.p0(i64 4, ptr nonnull %9) #15
  call void @llvm.lifetime.end.p0(i64 4, ptr nonnull %8) #15
  br label %70

70:                                               ; preds = %._crit_edge, %6
  ret void

.loopexit:                                        ; preds = %35
  %lpad.loopexit = landingpad { ptr, i32 }
          catch ptr null
  br label %71

.loopexit.split-lp:                               ; preds = %34
  %lpad.loopexit.split-lp = landingpad { ptr, i32 }
          catch ptr null
  br label %71

71:                                               ; preds = %.loopexit.split-lp, %.loopexit
  %lpad.phi = phi { ptr, i32 } [ %lpad.loopexit, %.loopexit ], [ %lpad.loopexit.split-lp, %.loopexit.split-lp ]
  %72 = extractvalue { ptr, i32 } %lpad.phi, 0
  call void @__clang_call_terminate(ptr %72) #37
  unreachable
}